ccopy_reg
_reconstructor
p1
(ccloudinit.sources.DataSourceEc2
DataSourceEc2Local
p2
c__builtin__
object
p3
NtRp4
(dp5
S'paths'
p6
g1
(ccloudinit.helpers
Paths
p7
g3
NtRp8
(dp9
S'run_dir'
p10
S'/run/cloud-init'
p11
sS'lookups'
p12
(dp13
S'cloud_config'
p14
S'cloud-config.txt'
p15
sS'vendor_scripts'
p16
S'scripts/vendor'
p17
sS'userdata'
p18
S'user-data.txt.i'
p19
sS'handlers'
p20
g20
sS'obj_pkl'
p21
S'obj.pkl'
p22
sS'userdata_raw'
p23
S'user-data.txt'
p24
sS'warnings'
p25
g25
sS'boothooks'
p26
g26
sS'instance_id'
p27
S'.instance-id'
p28
sS'vendordata'
p29
S'vendor-data.txt.i'
p30
sS'vendor_cloud_config'
p31
S'vendor-cloud-config.txt'
p32
sS'scripts'
p33
g33
sS'sem'
p34
g34
sS'data'
p35
g35
sS'vendordata_raw'
p36
S'vendor-data.txt'
p37
sS'manual_clean_marker'
p38
S'manual-clean'
p39
ssS'template_tpl'
p40
S'/etc/cloud/templates/%s.tmpl'
p41
sS'cfgs'
p42
(dp43
S'cloud_dir'
p44
S'/var/lib/cloud'
p45
sS'templates_dir'
p46
S'/etc/cloud/templates'
p47
ssS'cloud_dir'
p48
g45
sS'datasource'
p49
NsS'upstart_conf_d'
p50
NsS'boot_finished'
p51
S'/var/lib/cloud/instance/boot-finished'
p52
sS'instance_link'
p53
S'/var/lib/cloud/instance'
p54
sS'seed_dir'
p55
S'/var/lib/cloud/seed'
p56
sbsS'metadata_address'
p57
S'http://169.254.169.254'
p58
sS'_cloud_platform'
p59
S'AWS'
p60
sS'_network_config'
p61
(dp62
S'version'
p63
I1
sS'config'
p64
(lp65
(dp66
S'subnets'
p67
(lp68
(dp69
S'type'
p70
S'dhcp4'
p71
sasg70
S'physical'
p72
sS'name'
p73
S'eth0'
p74
sS'mac_address'
p75
S'12:4d:02:3b:2f:5e'
p76
sassS'sys_cfg'
p77
(dp78
S'paths'
p79
(dp80
S'cloud_dir'
p81
S'/var/lib/cloud'
p82
sS'templates_dir'
p83
S'/etc/cloud/templates'
p84
ssS'default_user'
p85
(dp86
S'shell'
p87
S'/bin/bash'
p88
sS'name'
p89
S'centos'
p90
sS'sudo'
p91
(lp92
S'ALL=(ALL) NOPASSWD:ALL'
p93
asS'lock_passwd'
p94
I01
sS'gecos'
p95
S'Cloud User'
p96
sS'groups'
p97
(lp98
S'wheel'
p99
aS'adm'
p100
aS'systemd-journal'
p101
assS'network'
p102
(dp103
S'renderers'
p104
NssS'ssh_svcname'
p105
S'sshd'
p106
ssS'userdata'
p107
(iemail.mime.multipart
MIMEMultipart
p108
(dp109
S'_headers'
p110
(lp111
(S'Content-Type'
p112
S'multipart/mixed; boundary="===============2857864383361045727=="'
tp113
a(S'MIME-Version'
p114
S'1.0'
p115
tp116
a(S'Number-Attachments'
p117
S'1'
tp118
a(g117
S'1'
tp119
asS'_payload'
p120
(lp121
(iemail.mime.base
MIMEBase
p122
(dp123
g110
(lp124
(g114
g115
tp125
a(S'Content-Type'
p126
S'text/x-not-multipart'
tp127
a(S'Content-Disposition'
p128
S'attachment; filename="part-001"'
tp129
asg120
S''
sS'_charset'
p130
NsS'_default_type'
p131
S'text/plain'
p132
sS'preamble'
p133
NsS'defects'
p134
(lp135
sS'_unixfrom'
p136
NsS'epilogue'
p137
Nsbasg130
Nsg131
g132
sg133
Nsg134
(lp138
sg136
Nsg137
NsbsS'vendordata'
p139
(iemail.mime.multipart
MIMEMultipart
p140
(dp141
g110
(lp142
(g112
S'multipart/mixed; boundary="===============7983450329556761170=="'
tp143
a(g114
g115
tp144
a(g117
S'1'
tp145
asg120
(lp146
(iemail.mime.base
MIMEBase
p147
(dp148
g110
(lp149
(g114
g115
tp150
a(g126
S'text/x-not-multipart'
tp151
a(g128
S'attachment; filename="part-001"'
tp152
asg120
S''
sg130
Nsg131
g132
sg133
Nsg134
(lp153
sg136
Nsg137
Nsbasg130
Nsg131
g132
sg133
Nsg134
(lp154
sg136
Nsg137
NsbsS'userdata_raw'
p155
S''
sS'vendordata_raw'
p156
NsS'_cloud_name'
p157
S'aws'
p158
sS'ud_proc'
p159
g1
(ccloudinit.user_data
UserDataProcessor
p160
g3
NtRp161
(dp162
g6
g8
sS'ssl_details'
p163
(dp164
sbsg55
S'/var/lib/cloud/seed/ec2'
p165
sS'ds_cfg'
p166
(dp167
sS'metadata'
p168
(dp169
S'product-codes'
p170
S'aw0evgkw8e5c1q413zgy5pjce'
p171
sS'ami-manifest-path'
p172
S'(unknown)'
p173
sS'instance-type'
p174
S't2.micro'
p175
sS'instance-id'
p176
S'i-0cd230a0ccdebe749'
p177
sS'local-hostname'
p178
S'ip-172-31-84-133.ec2.internal'
p179
sS'network'
p180
(dp181
S'interfaces'
p182
(dp183
S'macs'
p184
(dp185
S'12:4d:02:3b:2f:5e'
p186
(dp187
S'local-hostname'
p188
S'ip-172-31-84-133.ec2.internal'
p189
sS'security-groups'
p190
S'CentOS 7 -x86_64- - with Updates HVM-1901_01-AutogenByAWSMP-3'
p191
sS'public-hostname'
p192
S'ec2-52-91-211-198.compute-1.amazonaws.com'
p193
sS'vpc-ipv4-cidr-blocks'
p194
S'172.31.0.0/16'
p195
sS'subnet-id'
p196
S'subnet-07bd6e29'
p197
sS'device-number'
p198
S'0'
sS'interface-id'
p199
S'eni-0c0531ca632bebda9'
p200
sS'mac'
p201
S'12:4d:02:3b:2f:5e'
p202
sS'security-group-ids'
p203
S'sg-0521b56357e858d1e'
p204
sS'public-ipv4s'
p205
S'52.91.211.198'
p206
sS'owner-id'
p207
S'425160228698'
p208
sS'subnet-ipv4-cidr-block'
p209
S'172.31.80.0/20'
p210
sS'ipv4-associations'
p211
(dp212
S'52.91.211.198'
p213
S'172.31.84.133'
p214
ssS'local-ipv4s'
p215
S'172.31.84.133'
p216
sS'vpc-ipv4-cidr-block'
p217
S'172.31.0.0/16'
p218
sS'vpc-id'
p219
S'vpc-9abba8e1'
p220
sssssS'hostname'
p221
S'ip-172-31-84-133.ec2.internal'
p222
sS'ami-id'
p223
S'ami-02eac2c0129f6376b'
p224
sS'instance-action'
p225
S'none'
p226
sS'profile'
p227
S'default-hvm'
p228
sS'reservation-id'
p229
S'r-0adbe31daf2cb6d9f'
p230
sS'security-groups'
p231
S'CentOS 7 -x86_64- - with Updates HVM-1901_01-AutogenByAWSMP-3'
p232
sS'metrics'
p233
(dp234
S'vhostmd'
p235
S'<?xml version="1.0" encoding="UTF-8"?>'
p236
ssS'mac'
p237
S'12:4d:02:3b:2f:5e'
p238
sS'public-ipv4'
p239
S'52.91.211.198'
p240
sS'services'
p241
(dp242
S'domain'
p243
S'amazonaws.com'
p244
sS'partition'
p245
S'aws'
p246
ssS'local-ipv4'
p247
S'172.31.84.133'
p248
sS'placement'
p249
(dp250
S'availability-zone'
p251
S'us-east-1b'
p252
ssS'ami-launch-index'
p253
S'0'
sS'public-hostname'
p254
S'ec2-52-91-211-198.compute-1.amazonaws.com'
p255
sS'public-keys'
p256
(dp257
S'phpBB_taos1'
p258
(lp259
S'ssh-rsa AAAAB3NzaC1yc2EAAAADAQABAAABAQDOHh/c4Zv8z7/3nVmGVGDYBQ2H9S7QQWy6X/d3sl8yZE3c8StIt3oVQTOh4DWoErh1kDA3avTPIGqKDuYQhWn8JE/tCJHLNlB2SZsMkhh363mRhfaTZuug5DmviHiJSORByYziPKtr+R1B0L2pd41I6v/V3KlXCtTsrExcqq3y2VxIX6I1EAwQ0474aLa35CDwxVY0w/njn+LGKApfIn/KnF+KeztVtzgkB317GMQ91fnd9EYi3crqvsr2BSCTpj6F+XN9xtgFZBCEnakQ1NFLLKaYXhXnPFcgsJPhVUvVDKyV/oSbK+aBe7igyBwRHMMdZ2GLOMBY7aosexmsf9pv phpBB_taos1'
p260
assS'block-device-mapping'
p261
(dp262
S'ami'
p263
S'/dev/sda1'
p264
sS'root'
p265
S'/dev/sda1'
p266
sssS'_fallback_interface'
p267
g74
sS'identity'
p268
(dp269
VdevpayProductCodes
p270
NsVavailabilityZone
p271
Vus-east-1b
p272
sVinstanceId
p273
Vi-0cd230a0ccdebe749
p274
sVregion
p275
Vus-east-1
p276
sVmarketplaceProductCodes
p277
(lp278
Vaw0evgkw8e5c1q413zgy5pjce
p279
asVimageId
p280
Vami-02eac2c0129f6376b
p281
sVversion
p282
V2017-09-30
p283
sVarchitecture
p284
Vx86_64
p285
sVbillingProducts
p286
NsVkernelId
p287
NsVramdiskId
p288
NsVprivateIp
p289
V172.31.84.133
p290
sVinstanceType
p291
Vt2.micro
p292
sVpendingTime
p293
V2019-02-12T23:16:50Z
p294
sVaccountId
p295
V425160228698
p296
ssS'distro'
p297
g1
(ccloudinit.distros.rhel
Distro
p298
g3
NtRp299
(dp300
S'osfamily'
p301
S'redhat'
p302
sS'_paths'
p303
g1
(g7
g3
NtRp304
(dp305
g10
S'/run/cloud-init'
p306
sg12
(dp307
S'cloud_config'
p308
S'cloud-config.txt'
p309
sS'vendor_scripts'
p310
S'scripts/vendor'
p311
sS'warnings'
p312
g312
sg107
S'user-data.txt.i'
p313
sS'handlers'
p314
g314
sS'obj_pkl'
p315
S'obj.pkl'
p316
sg155
S'user-data.txt'
p317
sg156
S'vendor-data.txt'
p318
sS'boothooks'
p319
g319
sS'instance_id'
p320
S'.instance-id'
p321
sg139
S'vendor-data.txt.i'
p322
sS'vendor_cloud_config'
p323
S'vendor-cloud-config.txt'
p324
sS'scripts'
p325
g325
sS'sem'
p326
g326
sS'data'
p327
g327
sS'manual_clean_marker'
p328
S'manual-clean'
p329
ssg40
S'/etc/cloud/templates/%s.tmpl'
p330
sg42
(dp331
g81
g82
sg83
g84
ssg48
g82
sg49
g4
sg50
Nsg51
S'/var/lib/cloud/instance/boot-finished'
p332
sg53
S'/var/lib/cloud/instance'
p333
sg55
S'/var/lib/cloud/seed'
p334
sbsg73
S'rhel'
p335
sS'_runner'
p336
g1
(ccloudinit.helpers
Runners
p337
g3
NtRp338
(dp339
g6
g304
sS'sems'
p340
(dp341
sbsS'_cfg'
p342
g78
sbsb.